target datalayout = "e-m:e-p270:32:32-p271:32:32-p272:64:64-i64:64-i128:128-f80:128-n8:16:32:64-S128"
target triple = "x86_64-pc-linux-gnu"

%"class.llvm::CallGraph" = type { ptr, %"class.std::map", ptr, %"class.std::unique_ptr" }
%"class.std::map" = type { %"class.std::_Rb_tree" }
%"class.std::_Rb_tree" = type { %"struct.std::_Rb_tree<const llvm::Function *, std::pair<const llvm::Function *const, std::unique_ptr<llvm::CallGraphNode>>, std::_Select1st<std::pair<const llvm::Function *const, std::unique_ptr<llvm::CallGraphNode>>>, std::less<const llvm::Function *>>::_Rb_tree_impl" }
%"struct.std::_Rb_tree<const llvm::Function *, std::pair<const llvm::Function *const, std::unique_ptr<llvm::CallGraphNode>>, std::_Select1st<std::pair<const llvm::Function *const, std::unique_ptr<llvm::CallGraphNode>>>, std::less<const llvm::Function *>>::_Rb_tree_impl" = type { [8 x i8], %"struct.std::_Rb_tree_header" }
%"struct.std::_Rb_tree_header" = type { %"struct.std::_Rb_tree_node_base", i64 }
%"struct.std::_Rb_tree_node_base" = type { i32, ptr, ptr, ptr }
%"class.std::unique_ptr" = type { %"struct.std::__uniq_ptr_data" }
%"struct.std::__uniq_ptr_data" = type { %"class.std::__uniq_ptr_impl" }
%"class.std::__uniq_ptr_impl" = type { %"class.std::tuple" }
%"class.std::tuple" = type { %"struct.std::_Tuple_impl" }
%"struct.std::_Tuple_impl" = type { %"struct.std::_Head_base.1" }
%"struct.std::_Head_base.1" = type { ptr }
%"class.llvm::CallGraphNode" = type <{ ptr, ptr, %"class.std::vector", i32, [4 x i8] }>
%"class.std::vector" = type { %"struct.std::_Vector_base" }
%"struct.std::_Vector_base" = type { %"struct.std::_Vector_base<std::pair<std::optional<llvm::WeakTrackingVH>, llvm::CallGraphNode *>, std::allocator<std::pair<std::optional<llvm::WeakTrackingVH>, llvm::CallGraphNode *>>>::_Vector_impl" }
%"struct.std::_Vector_base<std::pair<std::optional<llvm::WeakTrackingVH>, llvm::CallGraphNode *>, std::allocator<std::pair<std::optional<llvm::WeakTrackingVH>, llvm::CallGraphNode *>>>::_Vector_impl" = type { %"struct.std::_Vector_base<std::pair<std::optional<llvm::WeakTrackingVH>, llvm::CallGraphNode *>, std::allocator<std::pair<std::optional<llvm::WeakTrackingVH>, llvm::CallGraphNode *>>>::_Vector_impl_data" }
%"struct.std::_Vector_base<std::pair<std::optional<llvm::WeakTrackingVH>, llvm::CallGraphNode *>, std::allocator<std::pair<std::optional<llvm::WeakTrackingVH>, llvm::CallGraphNode *>>>::_Vector_impl_data" = type { ptr, ptr, ptr }
%"class.std::optional.127" = type { %"struct.std::_Optional_base.128" }
%"struct.std::_Optional_base.128" = type { %"struct.std::_Optional_payload.130" }
%"struct.std::_Optional_payload.130" = type { %"struct.std::_Optional_payload.base", [7 x i8] }
%"struct.std::_Optional_payload.base" = type { %"struct.std::_Optional_payload_base.base" }
%"struct.std::_Optional_payload_base.base" = type <{ %"union.std::_Optional_payload_base<llvm::WeakTrackingVH>::_Storage", i8 }>
%"union.std::_Optional_payload_base<llvm::WeakTrackingVH>::_Storage" = type { %"class.llvm::WeakTrackingVH" }
%"class.llvm::WeakTrackingVH" = type { %"class.llvm::ValueHandleBase" }
%"class.llvm::ValueHandleBase" = type { %"class.llvm::PointerIntPair", ptr, ptr }
%"class.llvm::PointerIntPair" = type { %"struct.llvm::detail::PunnedPointer" }
%"struct.llvm::detail::PunnedPointer" = type { [8 x i8] }
%"struct.std::pair.125" = type { %"class.std::optional.127", ptr }
%"class.__gnu_cxx::__normal_iterator" = type { ptr }

; Function Attrs: mustprogress nounwind uwtable
define linkonce_odr hidden noundef nonnull align 8 dereferenceable(8) ptr @_ZNK9__gnu_cxx17__normal_iteratorIPSt4pairISt8optionalIN4llvm14WeakTrackingVHEEPNS3_13CallGraphNodeEESt6vectorIS8_SaIS8_EEE4baseEv(ptr noundef nonnull align 8 dereferenceable(8) %0) #0 comdat align 2 {
  %2 = alloca ptr, align 8
  store ptr %0, ptr %2, align 8
  %3 = load ptr, ptr %2, align 8
  %4 = getelementptr inbounds nuw %"class.__gnu_cxx::__normal_iterator", ptr %3, i32 0, i32 0
  ret ptr %4
}

; Function Attrs: mustprogress nounwind uwtable
define linkonce_odr hidden void @_ZN9__gnu_cxx17__normal_iteratorIPSt4pairISt8optionalIN4llvm14WeakTrackingVHEEPNS3_13CallGraphNodeEESt6vectorIS8_SaIS8_EEEC2ERKS9_(ptr noundef nonnull align 8 dereferenceable(8) %0, ptr noundef nonnull align 8 dereferenceable(8) %1) unnamed_addr #0 comdat align 2 {
  %3 = alloca ptr, align 8
  %4 = alloca ptr, align 8
  store ptr %0, ptr %3, align 8
  store ptr %1, ptr %4, align 8
  %5 = load ptr, ptr %3, align 8
  %6 = getelementptr inbounds nuw %"class.__gnu_cxx::__normal_iterator", ptr %5, i32 0, i32 0
  %7 = load ptr, ptr %4, align 8
  %8 = load ptr, ptr %7, align 8
  store ptr %8, ptr %6, align 8
  ret void
}

; Function Attrs: mustprogress nounwind uwtable
define linkonce_odr hidden noundef nonnull align 8 dereferenceable(8) ptr @_ZN9__gnu_cxx17__normal_iteratorIPSt4pairISt8optionalIN4llvm14WeakTrackingVHEEPNS3_13CallGraphNodeEESt6vectorIS8_SaIS8_EEEppEv(ptr noundef nonnull align 8 dereferenceable(8) %0) #0 comdat align 2 {
  %2 = alloca ptr, align 8
  store ptr %0, ptr %2, align 8
  %3 = load ptr, ptr %2, align 8
  %4 = getelementptr inbounds nuw %"class.__gnu_cxx::__normal_iterator", ptr %3, i32 0, i32 0
  %5 = load ptr, ptr %4, align 8
  %6 = getelementptr inbounds %"struct.std::pair.125", ptr %5, i32 1
  store ptr %6, ptr %4, align 8
  ret ptr %3
}

; Function Attrs: mustprogress nounwind uwtable
define linkonce_odr hidden void @_ZN4llvm13CallGraphNode6AddRefEv(ptr noundef nonnull align 8 dereferenceable(44) %0) #0 comdat align 2 {
  %2 = alloca ptr, align 8
  store ptr %0, ptr %2, align 8
  %3 = load ptr, ptr %2, align 8
  %4 = getelementptr inbounds nuw %"class.llvm::CallGraphNode", ptr %3, i32 0, i32 3
  %5 = load i32, ptr %4, align 8
  %6 = add i32 %5, 1
  store i32 %6, ptr %4, align 8
  ret void
}

; Function Attrs: mustprogress nounwind uwtable
define linkonce_odr hidden void @_ZN4llvm13CallGraphNode7DropRefEv(ptr noundef nonnull align 8 dereferenceable(44) %0) #0 comdat align 2 {
  %2 = alloca ptr, align 8
  store ptr %0, ptr %2, align 8
  %3 = load ptr, ptr %2, align 8
  %4 = getelementptr inbounds nuw %"class.llvm::CallGraphNode", ptr %3, i32 0, i32 3
  %5 = load i32, ptr %4, align 8
  %6 = add i32 %5, -1
  store i32 %6, ptr %4, align 8
  ret void
}

; Function Attrs: mustprogress nounwind uwtable
define linkonce_odr hidden noundef nonnull align 8 dereferenceable(40) ptr @_ZNK9__gnu_cxx17__normal_iteratorIPSt4pairISt8optionalIN4llvm14WeakTrackingVHEEPNS3_13CallGraphNodeEESt6vectorIS8_SaIS8_EEEdeEv(ptr noundef nonnull align 8 dereferenceable(8) %0) #0 comdat align 2 {
  %2 = alloca ptr, align 8
  store ptr %0, ptr %2, align 8
  %3 = load ptr, ptr %2, align 8
  %4 = getelementptr inbounds nuw %"class.__gnu_cxx::__normal_iterator", ptr %3, i32 0, i32 0
  %5 = load ptr, ptr %4, align 8
  ret ptr %5
}

; Function Attrs: mustprogress nounwind uwtable
define linkonce_odr noundef zeroext i1 @_ZN9__gnu_cxxneIPSt4pairISt8optionalIN4llvm14WeakTrackingVHEEPNS3_13CallGraphNodeEESt6vectorIS8_SaIS8_EEEEbRKNS_17__normal_iteratorIT_T0_EESI_(ptr noundef nonnull align 8 dereferenceable(8) %0, ptr noundef nonnull align 8 dereferenceable(8) %1) #0 comdat {
  %3 = alloca ptr, align 8
  %4 = alloca ptr, align 8
  store ptr %0, ptr %3, align 8
  store ptr %1, ptr %4, align 8
  %5 = load ptr, ptr %3, align 8
  %6 = call noundef nonnull align 8 dereferenceable(8) ptr @_ZNK9__gnu_cxx17__normal_iteratorIPSt4pairISt8optionalIN4llvm14WeakTrackingVHEEPNS3_13CallGraphNodeEESt6vectorIS8_SaIS8_EEE4baseEv(ptr noundef nonnull align 8 dereferenceable(8) %5) #11
  %7 = load ptr, ptr %6, align 8
  %8 = load ptr, ptr %4, align 8
  %9 = call noundef nonnull align 8 dereferenceable(8) ptr @_ZNK9__gnu_cxx17__normal_iteratorIPSt4pairISt8optionalIN4llvm14WeakTrackingVHEEPNS3_13CallGraphNodeEESt6vectorIS8_SaIS8_EEE4baseEv(ptr noundef nonnull align 8 dereferenceable(8) %8) #11
  %10 = load ptr, ptr %9, align 8
  %11 = icmp ne ptr %7, %10
  ret i1 %11
}

; Function Attrs: mustprogress nounwind uwtable
define linkonce_odr hidden ptr @_ZNSt6vectorISt4pairISt8optionalIN4llvm14WeakTrackingVHEEPNS2_13CallGraphNodeEESaIS7_EE3endEv(ptr noundef nonnull align 8 dereferenceable(24) %0) #0 comdat align 2 {
  %2 = alloca %"class.__gnu_cxx::__normal_iterator", align 8
  %3 = alloca ptr, align 8
  store ptr %0, ptr %3, align 8
  %4 = load ptr, ptr %3, align 8
  %5 = getelementptr inbounds nuw %"struct.std::_Vector_base", ptr %4, i32 0, i32 0
  %6 = getelementptr inbounds nuw %"struct.std::_Vector_base<std::pair<std::optional<llvm::WeakTrackingVH>, llvm::CallGraphNode *>, std::allocator<std::pair<std::optional<llvm::WeakTrackingVH>, llvm::CallGraphNode *>>>::_Vector_impl_data", ptr %5, i32 0, i32 1
  call void @_ZN9__gnu_cxx17__normal_iteratorIPSt4pairISt8optionalIN4llvm14WeakTrackingVHEEPNS3_13CallGraphNodeEESt6vectorIS8_SaIS8_EEEC2ERKS9_(ptr noundef nonnull align 8 dereferenceable(8) %2, ptr noundef nonnull align 8 dereferenceable(8) %6) #11
  %7 = getelementptr inbounds nuw %"class.__gnu_cxx::__normal_iterator", ptr %2, i32 0, i32 0
  %8 = load ptr, ptr %7, align 8
  ret ptr %8
}

; Function Attrs: mustprogress nounwind uwtable
define linkonce_odr hidden ptr @_ZNSt6vectorISt4pairISt8optionalIN4llvm14WeakTrackingVHEEPNS2_13CallGraphNodeEESaIS7_EE5beginEv(ptr noundef nonnull align 8 dereferenceable(24) %0) #0 comdat align 2 {
  %2 = alloca %"class.__gnu_cxx::__normal_iterator", align 8
  %3 = alloca ptr, align 8
  store ptr %0, ptr %3, align 8
  %4 = load ptr, ptr %3, align 8
  %5 = getelementptr inbounds nuw %"struct.std::_Vector_base", ptr %4, i32 0, i32 0
  %6 = getelementptr inbounds nuw %"struct.std::_Vector_base<std::pair<std::optional<llvm::WeakTrackingVH>, llvm::CallGraphNode *>, std::allocator<std::pair<std::optional<llvm::WeakTrackingVH>, llvm::CallGraphNode *>>>::_Vector_impl_data", ptr %5, i32 0, i32 0
  call void @_ZN9__gnu_cxx17__normal_iteratorIPSt4pairISt8optionalIN4llvm14WeakTrackingVHEEPNS3_13CallGraphNodeEESt6vectorIS8_SaIS8_EEEC2ERKS9_(ptr noundef nonnull align 8 dereferenceable(8) %2, ptr noundef nonnull align 8 dereferenceable(8) %6) #11
  %7 = getelementptr inbounds nuw %"class.__gnu_cxx::__normal_iterator", ptr %2, i32 0, i32 0
  %8 = load ptr, ptr %7, align 8
  ret ptr %8
}

; Function Attrs: mustprogress nounwind uwtable
define dso_local void @_ZN4llvm9CallGraph23ReplaceExternalCallEdgeEPNS_13CallGraphNodeES2_(ptr noundef nonnull align 8 dereferenceable(72) %0, ptr noundef %1, ptr noundef %2) #0 align 2 {
  %4 = alloca ptr, align 8
  %5 = alloca ptr, align 8
  %6 = alloca ptr, align 8
  %7 = alloca ptr, align 8
  %8 = alloca %"class.__gnu_cxx::__normal_iterator", align 8
  %9 = alloca %"class.__gnu_cxx::__normal_iterator", align 8
  %10 = alloca ptr, align 8
  store ptr %0, ptr %4, align 8
  store ptr %1, ptr %5, align 8
  store ptr %2, ptr %6, align 8
  %11 = load ptr, ptr %4, align 8
  %12 = getelementptr inbounds nuw %"class.llvm::CallGraph", ptr %11, i32 0, i32 2
  %13 = load ptr, ptr %12, align 8
  %14 = getelementptr inbounds nuw %"class.llvm::CallGraphNode", ptr %13, i32 0, i32 2
  store ptr %14, ptr %7, align 8
  %15 = load ptr, ptr %7, align 8
  %16 = call ptr @_ZNSt6vectorISt4pairISt8optionalIN4llvm14WeakTrackingVHEEPNS2_13CallGraphNodeEESaIS7_EE5beginEv(ptr noundef nonnull align 8 dereferenceable(24) %15) #11
  %17 = getelementptr inbounds nuw %"class.__gnu_cxx::__normal_iterator", ptr %8, i32 0, i32 0
  store ptr %16, ptr %17, align 8
  %18 = load ptr, ptr %7, align 8
  %19 = call ptr @_ZNSt6vectorISt4pairISt8optionalIN4llvm14WeakTrackingVHEEPNS2_13CallGraphNodeEESaIS7_EE3endEv(ptr noundef nonnull align 8 dereferenceable(24) %18) #11
  %20 = getelementptr inbounds nuw %"class.__gnu_cxx::__normal_iterator", ptr %9, i32 0, i32 0
  store ptr %19, ptr %20, align 8
  br label %21

21:                                               ; preds = %41, %3
  %22 = call noundef zeroext i1 @_ZN9__gnu_cxxneIPSt4pairISt8optionalIN4llvm14WeakTrackingVHEEPNS3_13CallGraphNodeEESt6vectorIS8_SaIS8_EEEEbRKNS_17__normal_iteratorIT_T0_EESI_(ptr noundef nonnull align 8 dereferenceable(8) %8, ptr noundef nonnull align 8 dereferenceable(8) %9) #11
  br i1 %22, label %23, label %43

23:                                               ; preds = %21
  %24 = call noundef nonnull align 8 dereferenceable(40) ptr @_ZNK9__gnu_cxx17__normal_iteratorIPSt4pairISt8optionalIN4llvm14WeakTrackingVHEEPNS3_13CallGraphNodeEESt6vectorIS8_SaIS8_EEEdeEv(ptr noundef nonnull align 8 dereferenceable(8) %8) #11
  store ptr %24, ptr %10, align 8
  %25 = load ptr, ptr %10, align 8
  %26 = getelementptr inbounds nuw %"struct.std::pair.125", ptr %25, i32 0, i32 1
  %27 = load ptr, ptr %26, align 8
  %28 = load ptr, ptr %5, align 8
  %29 = icmp eq ptr %27, %28
  br i1 %29, label %30, label %40

30:                                               ; preds = %23
  %31 = load ptr, ptr %10, align 8
  %32 = getelementptr inbounds nuw %"struct.std::pair.125", ptr %31, i32 0, i32 1
  %33 = load ptr, ptr %32, align 8
  call void @_ZN4llvm13CallGraphNode7DropRefEv(ptr noundef nonnull align 8 dereferenceable(44) %33)
  %34 = load ptr, ptr %6, align 8
  %35 = load ptr, ptr %10, align 8
  %36 = getelementptr inbounds nuw %"struct.std::pair.125", ptr %35, i32 0, i32 1
  store ptr %34, ptr %36, align 8
  %37 = load ptr, ptr %10, align 8
  %38 = getelementptr inbounds nuw %"struct.std::pair.125", ptr %37, i32 0, i32 1
  %39 = load ptr, ptr %38, align 8
  call void @_ZN4llvm13CallGraphNode6AddRefEv(ptr noundef nonnull align 8 dereferenceable(44) %39)
  br label %40

40:                                               ; preds = %30, %23
  br label %41

41:                                               ; preds = %40
  %42 = call noundef nonnull align 8 dereferenceable(8) ptr @_ZN9__gnu_cxx17__normal_iteratorIPSt4pairISt8optionalIN4llvm14WeakTrackingVHEEPNS3_13CallGraphNodeEESt6vectorIS8_SaIS8_EEEppEv(ptr noundef nonnull align 8 dereferenceable(8) %8) #11
  br label %21

43:                                               ; preds = %21
  ret void
}