; Function Attrs: mustprogress nofree norecurse nosync nounwind memory(readwrite, inaccessiblemem: none) uwtable
define dso_local void @_ZN4llvm9CallGraph23ReplaceExternalCallEdgeEPNS_13CallGraphNodeES2_(ptr noundef nonnull readonly align 8 captures(none) dereferenceable(72) %0, ptr noundef readnone %1, ptr noundef %2) local_unnamed_addr #3 align 2 {
  %4 = getelementptr inbounds nuw i8, ptr %0, i64 56
  %5 = load ptr, ptr %4, align 8
  %6 = getelementptr inbounds nuw i8, ptr %5, i64 16
  %7 = load ptr, ptr %6, align 8
  %8 = getelementptr inbounds nuw i8, ptr %5, i64 24
  %9 = load ptr, ptr %8, align 8
  %.not12 = icmp eq ptr %7, %9
  br i1 %.not12, label %._crit_edge, label %.lr.ph

.lr.ph:                                           ; preds = %3
  %10 = getelementptr inbounds nuw i8, ptr %2, i64 40
  br label %11

11:                                               ; preds = %.lr.ph, %21
  %.sroa.09.013 = phi ptr [ %7, %.lr.ph ], [ %22, %21 ]
  %12 = getelementptr inbounds nuw i8, ptr %.sroa.09.013, i64 32
  %13 = load ptr, ptr %12, align 8
  %14 = icmp eq ptr %13, %1
  br i1 %14, label %15, label %21

15:                                               ; preds = %11
  %16 = getelementptr inbounds nuw i8, ptr %13, i64 40
  %17 = load i32, ptr %16, align 8
  %18 = add i32 %17, -1
  store i32 %18, ptr %16, align 8
  store ptr %2, ptr %12, align 8
  %19 = load i32, ptr %10, align 8
  %20 = add i32 %19, 1
  store i32 %20, ptr %10, align 8
  br label %21

21:                                               ; preds = %11, %15
  %22 = getelementptr inbounds nuw i8, ptr %.sroa.09.013, i64 40
  %.not = icmp eq ptr %22, %9
  br i1 %.not, label %._crit_edge, label %11

._crit_edge:                                      ; preds = %21, %3
  ret void
}